; Function Attrs: nounwind sspstrong uwtable
define dso_local zeroext i1 @gdb_got_immediate_ack() local_unnamed_addr #0 {
  %1 = alloca i8, align 1
  call void @llvm.lifetime.start.p0(i64 1, ptr nonnull %1) #16
  store i8 0, ptr %1, align 1, !annotation !4
  br label %2

2:                                                ; preds = %12, %0
  %3 = load i32, ptr @gdbserver_user_state, align 8
  %4 = call i64 @recv(i32 noundef %3, ptr noundef nonnull %1, i64 noundef 1, i32 noundef 0) #16
  %5 = trunc i64 %4 to i32
  %6 = icmp slt i32 %5, 0
  br i1 %6, label %7, label %14

7:                                                ; preds = %2
  %8 = tail call ptr @__errno_location() #17
  %9 = load i32, ptr %8, align 4
  %10 = icmp eq i32 %9, 104
  br i1 %10, label %11, label %12

11:                                               ; preds = %7
  store i32 -1, ptr @gdbserver_user_state, align 8
  %.pr.i = load i32, ptr %8, align 4
  br label %12

12:                                               ; preds = %11, %7
  %13 = phi i32 [ %.pr.i, %11 ], [ %9, %7 ]
  %.not.i = icmp eq i32 %13, 4
  br i1 %.not.i, label %2, label %gdb_get_char.exit.thread

14:                                               ; preds = %2
  %15 = icmp eq i32 %5, 0
  br i1 %15, label %16, label %gdb_get_char.exit

16:                                               ; preds = %14
  %17 = load i32, ptr @gdbserver_user_state, align 8
  %18 = call i32 @close(i32 noundef %17) #16
  store i32 -1, ptr @gdbserver_user_state, align 8
  br label %gdb_get_char.exit.thread

gdb_get_char.exit.thread:                         ; preds = %12, %16
  call void @llvm.lifetime.end.p0(i64 1, ptr nonnull %1) #16
  br label %21

gdb_get_char.exit:                                ; preds = %14
  %19 = load i8, ptr %1, align 1
  call void @llvm.lifetime.end.p0(i64 1, ptr nonnull %1) #16
  %20 = icmp eq i8 %19, 43
  br label %21

21:                                               ; preds = %gdb_get_char.exit.thread, %gdb_get_char.exit
  %.0 = phi i1 [ %20, %gdb_get_char.exit ], [ true, %gdb_get_char.exit.thread ]
  ret i1 %.0
}